; Function Attrs: mustprogress uwtable
define void @_ZN9grpc_core29AwsExternalAccountCredentials12debug_stringB5cxx11Ev(ptr dead_on_unwind noalias writable sret(%"class.std::__cxx11::basic_string") align 8 %0, ptr noundef nonnull readonly align 8 captures(none) dereferenceable(696) %1) unnamed_addr #3 align 2 personality ptr @__gxx_personality_v0 {
  %3 = alloca %"class.absl::lts_20240722::AlphaNum", align 8
  %4 = alloca %"class.absl::lts_20240722::AlphaNum", align 8
  %5 = alloca %"class.absl::lts_20240722::AlphaNum", align 8
  call void @llvm.lifetime.start.p0(i64 48, ptr nonnull %3) #34
  store i64 39, ptr %3, align 8
  %6 = getelementptr inbounds nuw i8, ptr %3, i64 8
  store ptr @.str.44, ptr %6, align 8
  call void @llvm.lifetime.start.p0(i64 48, ptr nonnull %4) #34
  %7 = getelementptr inbounds nuw i8, ptr %1, i64 120
  %8 = load ptr, ptr %7, align 8, !tbaa !56
  %9 = getelementptr inbounds nuw i8, ptr %1, i64 128
  %10 = load i64, ptr %9, align 8, !tbaa !38
  store i64 %10, ptr %4, align 8, !tbaa !36
  %.sroa.2.0..sroa_idx.i = getelementptr inbounds nuw i8, ptr %4, i64 8
  store ptr %8, ptr %.sroa.2.0..sroa_idx.i, align 8, !tbaa !255
  call void @llvm.lifetime.start.p0(i64 48, ptr nonnull %5) #34
  store i64 1, ptr %5, align 8
  %11 = getelementptr inbounds nuw i8, ptr %5, i64 8
  store ptr @.str.45, ptr %11, align 8
  call void @_ZN4absl12lts_202407226StrCatB5cxx11ERKNS0_8AlphaNumES3_S3_(ptr dead_on_unwind writable sret(%"class.std::__cxx11::basic_string") align 8 %0, ptr noundef nonnull align 8 dereferenceable(48) %3, ptr noundef nonnull align 8 dereferenceable(48) %4, ptr noundef nonnull align 8 dereferenceable(48) %5)
  call void @llvm.lifetime.end.p0(i64 48, ptr nonnull %5) #34
  call void @llvm.lifetime.end.p0(i64 48, ptr nonnull %4) #34
  call void @llvm.lifetime.end.p0(i64 48, ptr nonnull %3) #34
  ret void
}